target datalayout = "e-m:e-p270:32:32-p271:32:32-p272:64:64-i64:64-i128:128-f80:128-n8:16:32:64-S128"
target triple = "x86_64-pc-linux-gnu"

%class.ModelWriter = type <{ %"class.ncnn::Net", ptr, ptr, i8, [3 x i8], i32, i32, i32, i32, [4 x i8] }>
%"class.ncnn::Net" = type { ptr, %"class.ncnn::Option", ptr }
%"class.ncnn::Option" = type { i8, i32, ptr, ptr, i32, i8, i8, i8, i8, i8, i8, i8, i8, i8, i8, i8, i8, i8, i8, i8, i8, i8, i8, i8, i8, i32, i8, i8, i8, i8, i8, i8, i8, i8, i8, i8, i8, i8 }
%"class.ncnn::Mat" = type { ptr, ptr, i64, i32, ptr, i32, i32, i32, i32, i32, i64 }

; Function Attrs: alwaysinline mustprogress nounwind uwtable
define internal void @_ZN4ncnnL8fastFreeEPv(ptr noundef %0) #9 {
  %2 = alloca ptr, align 8
  store ptr %0, ptr %2, align 8, !tbaa !26
  %3 = load ptr, ptr %2, align 8, !tbaa !26
  %4 = icmp ne ptr %3, null
  br i1 %4, label %5, label %7

5:                                                ; preds = %1
  %6 = load ptr, ptr %2, align 8, !tbaa !26
  call void @free(ptr noundef %6) #20
  br label %7

7:                                                ; preds = %5, %1
  ret void
}

; Function Attrs: alwaysinline mustprogress uwtable
define linkonce_odr dso_local void @_ZN4ncnn3Mat7releaseEv(ptr noundef nonnull align 8 dereferenceable(72) %0) #10 comdat align 2 {
  %2 = alloca ptr, align 8
  %3 = alloca i32, align 4
  %4 = alloca i32, align 4
  store ptr %0, ptr %2, align 8, !tbaa !100
  %5 = load ptr, ptr %2, align 8
  %6 = getelementptr inbounds nuw %"class.ncnn::Mat", ptr %5, i32 0, i32 1
  %7 = load ptr, ptr %6, align 8, !tbaa !102
  %8 = icmp ne ptr %7, null
  br i1 %8, label %9, label %32

9:                                                ; preds = %1
  %10 = getelementptr inbounds nuw %"class.ncnn::Mat", ptr %5, i32 0, i32 1
  %11 = load ptr, ptr %10, align 8, !tbaa !102
  store i32 -1, ptr %3, align 4, !tbaa !50
  %12 = load i32, ptr %3, align 4
  %13 = atomicrmw add ptr %11, i32 %12 acq_rel, align 4
  store i32 %13, ptr %4, align 4
  %14 = load i32, ptr %4, align 4, !tbaa !50
  %15 = icmp eq i32 %14, 1
  br i1 %15, label %16, label %32

16:                                               ; preds = %9
  %17 = getelementptr inbounds nuw %"class.ncnn::Mat", ptr %5, i32 0, i32 4
  %18 = load ptr, ptr %17, align 8, !tbaa !105
  %19 = icmp ne ptr %18, null
  br i1 %19, label %20, label %28

20:                                               ; preds = %16
  %21 = getelementptr inbounds nuw %"class.ncnn::Mat", ptr %5, i32 0, i32 4
  %22 = load ptr, ptr %21, align 8, !tbaa !105
  %23 = getelementptr inbounds nuw %"class.ncnn::Mat", ptr %5, i32 0, i32 0
  %24 = load ptr, ptr %23, align 8, !tbaa !101
  %25 = load ptr, ptr %22, align 8, !tbaa !29
  %26 = getelementptr inbounds ptr, ptr %25, i64 3
  %27 = load ptr, ptr %26, align 8
  call void %27(ptr noundef nonnull align 8 dereferenceable(8) %22, ptr noundef %24)
  br label %31

28:                                               ; preds = %16
  %29 = getelementptr inbounds nuw %"class.ncnn::Mat", ptr %5, i32 0, i32 0
  %30 = load ptr, ptr %29, align 8, !tbaa !101
  call void @_ZN4ncnnL8fastFreeEPv(ptr noundef %30)
  br label %31

31:                                               ; preds = %28, %20
  br label %32

32:                                               ; preds = %31, %9, %1
  %33 = getelementptr inbounds nuw %"class.ncnn::Mat", ptr %5, i32 0, i32 0
  store ptr null, ptr %33, align 8, !tbaa !101
  %34 = getelementptr inbounds nuw %"class.ncnn::Mat", ptr %5, i32 0, i32 2
  store i64 0, ptr %34, align 8, !tbaa !103
  %35 = getelementptr inbounds nuw %"class.ncnn::Mat", ptr %5, i32 0, i32 3
  store i32 0, ptr %35, align 8, !tbaa !104
  %36 = getelementptr inbounds nuw %"class.ncnn::Mat", ptr %5, i32 0, i32 5
  store i32 0, ptr %36, align 8, !tbaa !106
  %37 = getelementptr inbounds nuw %"class.ncnn::Mat", ptr %5, i32 0, i32 6
  store i32 0, ptr %37, align 4, !tbaa !107
  %38 = getelementptr inbounds nuw %"class.ncnn::Mat", ptr %5, i32 0, i32 7
  store i32 0, ptr %38, align 8, !tbaa !108
  %39 = getelementptr inbounds nuw %"class.ncnn::Mat", ptr %5, i32 0, i32 8
  store i32 0, ptr %39, align 4, !tbaa !109
  %40 = getelementptr inbounds nuw %"class.ncnn::Mat", ptr %5, i32 0, i32 9
  store i32 0, ptr %40, align 8, !tbaa !110
  %41 = getelementptr inbounds nuw %"class.ncnn::Mat", ptr %5, i32 0, i32 10
  store i64 0, ptr %41, align 8, !tbaa !111
  %42 = getelementptr inbounds nuw %"class.ncnn::Mat", ptr %5, i32 0, i32 1
  store ptr null, ptr %42, align 8, !tbaa !102
  ret void
}

; Function Attrs: alwaysinline mustprogress nounwind uwtable
define linkonce_odr dso_local void @_ZN4ncnn3MatD2Ev(ptr noundef nonnull align 8 dereferenceable(72) %0) unnamed_addr #9 comdat align 2 personality ptr @__gxx_personality_v0 {
  %2 = alloca ptr, align 8
  store ptr %0, ptr %2, align 8, !tbaa !100
  %3 = load ptr, ptr %2, align 8
  invoke void @_ZN4ncnn3Mat7releaseEv(ptr noundef nonnull align 8 dereferenceable(72) %3)
          to label %4 unwind label %5

4:                                                ; preds = %1
  ret void

5:                                                ; preds = %1
  %6 = landingpad { ptr, i32 }
          catch ptr null
  %7 = extractvalue { ptr, i32 } %6, 0
  call void @__clang_call_terminate(ptr %7) #23
  unreachable
}

; Function Attrs: inlinehint mustprogress nounwind uwtable
define internal noundef i64 @_ZL9alignSizemi(i64 noundef %0, i32 noundef %1) #1 {
  %3 = alloca i64, align 8
  %4 = alloca i32, align 4
  store i64 %0, ptr %3, align 8, !tbaa !39
  store i32 %1, ptr %4, align 4, !tbaa !50
  %5 = load i64, ptr %3, align 8, !tbaa !39
  %6 = load i32, ptr %4, align 4, !tbaa !50
  %7 = sext i32 %6 to i64
  %8 = add i64 %5, %7
  %9 = sub i64 %8, 1
  %10 = load i32, ptr %4, align 4, !tbaa !50
  %11 = sub nsw i32 0, %10
  %12 = sext i32 %11 to i64
  %13 = and i64 %9, %12
  ret i64 %13
}

; Function Attrs: mustprogress nounwind uwtable
define internal void @_ZL27replace_denormals_with_zeroPfm(ptr noundef %0, i64 noundef %1) #8 {
  %3 = alloca ptr, align 8
  %4 = alloca i64, align 8
  %5 = alloca i32, align 4
  %6 = alloca i64, align 8
  %7 = alloca float, align 4
  store ptr %0, ptr %3, align 8, !tbaa !117
  store i64 %1, ptr %4, align 8, !tbaa !39
  call void @llvm.lifetime.start.p0(i64 4, ptr %5) #20
  %8 = load i64, ptr %4, align 8, !tbaa !39
  %9 = trunc i64 %8 to i32
  store i32 %9, ptr %5, align 4, !tbaa !50
  call void @llvm.lifetime.start.p0(i64 8, ptr %6) #20
  store i64 0, ptr %6, align 8, !tbaa !39
  br label %10

10:                                               ; preds = %33, %2
  %11 = load i64, ptr %6, align 8, !tbaa !39
  %12 = load i64, ptr %4, align 8, !tbaa !39
  %13 = icmp ult i64 %11, %12
  br i1 %13, label %15, label %14

14:                                               ; preds = %10
  call void @llvm.lifetime.end.p0(i64 8, ptr %6) #20
  br label %36

15:                                               ; preds = %10
  call void @llvm.lifetime.start.p0(i64 4, ptr %7) #20
  %16 = load ptr, ptr %3, align 8, !tbaa !117
  %17 = load i64, ptr %6, align 8, !tbaa !39
  %18 = getelementptr inbounds nuw float, ptr %16, i64 %17
  %19 = load float, ptr %18, align 4, !tbaa !115
  store float %19, ptr %7, align 4, !tbaa !115
  %20 = load float, ptr %7, align 4, !tbaa !115
  %21 = call float @llvm.fabs.f32(float %20)
  %22 = fpext float %21 to double
  %23 = fcmp olt double %22, 1.000000e-30
  br i1 %23, label %24, label %32

24:                                               ; preds = %15
  %25 = load float, ptr %7, align 4, !tbaa !115
  %26 = call float @llvm.fabs.f32(float %25)
  %27 = fcmp une float %26, 0.000000e+00
  br i1 %27, label %28, label %32

28:                                               ; preds = %24
  %29 = load ptr, ptr %3, align 8, !tbaa !117
  %30 = load i64, ptr %6, align 8, !tbaa !39
  %31 = getelementptr inbounds nuw float, ptr %29, i64 %30
  store float 0.000000e+00, ptr %31, align 4, !tbaa !115
  br label %32

32:                                               ; preds = %28, %24, %15
  call void @llvm.lifetime.end.p0(i64 4, ptr %7) #20
  br label %33

33:                                               ; preds = %32
  %34 = load i64, ptr %6, align 8, !tbaa !39
  %35 = add i64 %34, 1
  store i64 %35, ptr %6, align 8, !tbaa !39
  br label %10, !llvm.loop !263

36:                                               ; preds = %14
  call void @llvm.lifetime.end.p0(i64 4, ptr %5) #20
  ret void
}

; Function Attrs: alwaysinline mustprogress nounwind uwtable
define linkonce_odr dso_local noundef ptr @_ZN4ncnn3MatcvPT_IfEEv(ptr noundef nonnull align 8 dereferenceable(72) %0) #9 comdat align 2 {
  %2 = alloca ptr, align 8
  store ptr %0, ptr %2, align 8, !tbaa !100
  %3 = load ptr, ptr %2, align 8
  %4 = getelementptr inbounds nuw %"class.ncnn::Mat", ptr %3, i32 0, i32 0
  %5 = load ptr, ptr %4, align 8, !tbaa !101
  ret ptr %5
}

; Function Attrs: mustprogress uwtable
define dso_local noundef i32 @_ZN11ModelWriter18fwrite_weight_dataERKN4ncnn3MatEP8_IO_FILEff(ptr noundef nonnull align 8 dereferenceable(116) %0, ptr noundef nonnull align 8 dereferenceable(72) %1, ptr noundef %2, float noundef %3, float noundef %4) #3 align 2 personality ptr @__gxx_personality_v0 {
  %6 = alloca ptr, align 8
  %7 = alloca ptr, align 8
  %8 = alloca ptr, align 8
  %9 = alloca float, align 4
  %10 = alloca float, align 4
  %11 = alloca i32, align 4
  %12 = alloca %"class.ncnn::Mat", align 8
  %13 = alloca ptr, align 8
  %14 = alloca i32, align 4
  %15 = alloca i32, align 4
  %16 = alloca i64, align 8
  %17 = alloca [4 x i8], align 1
  store ptr %0, ptr %6, align 8, !tbaa !5
  store ptr %1, ptr %7, align 8, !tbaa !100
  store ptr %2, ptr %8, align 8, !tbaa !14
  store float %3, ptr %9, align 4, !tbaa !115
  store float %4, ptr %10, align 4, !tbaa !115
  %18 = load ptr, ptr %6, align 8
  call void @llvm.lifetime.start.p0(i64 4, ptr %11) #20
  %19 = load ptr, ptr %8, align 8, !tbaa !14
  %20 = call i64 @ftell(ptr noundef %19)
  %21 = trunc i64 %20 to i32
  store i32 %21, ptr %11, align 4, !tbaa !50
  call void @llvm.lifetime.start.p0(i64 72, ptr %12) #20
  %22 = load ptr, ptr %7, align 8, !tbaa !100
  %23 = load ptr, ptr %7, align 8, !tbaa !100
  %24 = getelementptr inbounds nuw %"class.ncnn::Mat", ptr %23, i32 0, i32 6
  %25 = load i32, ptr %24, align 4, !tbaa !107
  %26 = load ptr, ptr %7, align 8, !tbaa !100
  %27 = getelementptr inbounds nuw %"class.ncnn::Mat", ptr %26, i32 0, i32 7
  %28 = load i32, ptr %27, align 8, !tbaa !108
  %29 = mul nsw i32 %25, %28
  %30 = load ptr, ptr %7, align 8, !tbaa !100
  %31 = getelementptr inbounds nuw %"class.ncnn::Mat", ptr %30, i32 0, i32 8
  %32 = load i32, ptr %31, align 4, !tbaa !109
  %33 = mul nsw i32 %29, %32
  %34 = load ptr, ptr %7, align 8, !tbaa !100
  %35 = getelementptr inbounds nuw %"class.ncnn::Mat", ptr %34, i32 0, i32 9
  %36 = load i32, ptr %35, align 8, !tbaa !110
  %37 = mul nsw i32 %33, %36
  call void @_ZNK4ncnn3Mat7reshapeEiPNS_9AllocatorE(ptr dead_on_unwind writable sret(%"class.ncnn::Mat") align 8 %12, ptr noundef nonnull align 8 dereferenceable(72) %22, i32 noundef %37, ptr noundef null)
  %38 = getelementptr inbounds nuw %class.ModelWriter, ptr %18, i32 0, i32 6
  %39 = load i32, ptr %38, align 8, !tbaa !36
  %40 = icmp ne i32 %39, 0
  br i1 %40, label %41, label %49

41:                                               ; preds = %5
  %42 = load float, ptr %9, align 4, !tbaa !115
  %43 = load float, ptr %10, align 4, !tbaa !115
  invoke void @_ZL9RandomizeRN4ncnn3MatEff(ptr noundef nonnull align 8 dereferenceable(72) %12, float noundef %42, float noundef %43)
          to label %44 unwind label %45

44:                                               ; preds = %41
  br label %49

45:                                               ; preds = %58, %41
  %46 = landingpad { ptr, i32 }
          cleanup
  %47 = extractvalue { ptr, i32 } %46, 0
  store ptr %47, ptr %13, align 8
  %48 = extractvalue { ptr, i32 } %46, 1
  store i32 %48, ptr %14, align 4
  br label %96

49:                                               ; preds = %44, %5
  %50 = getelementptr inbounds nuw %"class.ncnn::Mat", ptr %12, i32 0, i32 2
  %51 = load i64, ptr %50, align 8, !tbaa !103
  %52 = icmp eq i64 %51, 4
  br i1 %52, label %53, label %58

53:                                               ; preds = %49
  %54 = call noundef ptr @_ZN4ncnn3MatcvPT_IfEEv(ptr noundef nonnull align 8 dereferenceable(72) %12)
  %55 = getelementptr inbounds nuw %"class.ncnn::Mat", ptr %12, i32 0, i32 6
  %56 = load i32, ptr %55, align 4, !tbaa !107
  %57 = sext i32 %56 to i64
  call void @_ZL27replace_denormals_with_zeroPfm(ptr noundef %54, i64 noundef %57)
  br label %58

58:                                               ; preds = %53, %49
  %59 = getelementptr inbounds nuw %"class.ncnn::Mat", ptr %12, i32 0, i32 0
  %60 = load ptr, ptr %59, align 8, !tbaa !101
  %61 = getelementptr inbounds nuw %"class.ncnn::Mat", ptr %12, i32 0, i32 2
  %62 = load i64, ptr %61, align 8, !tbaa !103
  %63 = getelementptr inbounds nuw %"class.ncnn::Mat", ptr %12, i32 0, i32 6
  %64 = load i32, ptr %63, align 4, !tbaa !107
  %65 = sext i32 %64 to i64
  %66 = load ptr, ptr %8, align 8, !tbaa !14
  %67 = invoke i64 @fwrite(ptr noundef %60, i64 noundef %62, i64 noundef %65, ptr noundef %66)
          to label %68 unwind label %45

68:                                               ; preds = %58
  call void @llvm.lifetime.start.p0(i64 4, ptr %15) #20
  %69 = load ptr, ptr %8, align 8, !tbaa !14
  %70 = invoke i64 @ftell(ptr noundef %69)
          to label %71 unwind label %87

71:                                               ; preds = %68
  %72 = load i32, ptr %11, align 4, !tbaa !50
  %73 = sext i32 %72 to i64
  %74 = sub nsw i64 %70, %73
  %75 = trunc i64 %74 to i32
  store i32 %75, ptr %15, align 4, !tbaa !50
  call void @llvm.lifetime.start.p0(i64 8, ptr %16) #20
  %76 = load i32, ptr %15, align 4, !tbaa !50
  %77 = sext i32 %76 to i64
  %78 = call noundef i64 @_ZL9alignSizemi(i64 noundef %77, i32 noundef 4)
  store i64 %78, ptr %16, align 8, !tbaa !39
  call void @llvm.lifetime.start.p0(i64 4, ptr %17) #20
  call void @llvm.memset.p0.i64(ptr align 1 %17, i8 0, i64 4, i1 false)
  %79 = getelementptr inbounds [4 x i8], ptr %17, i64 0, i64 0
  %80 = load i64, ptr %16, align 8, !tbaa !39
  %81 = load i32, ptr %15, align 4, !tbaa !50
  %82 = sext i32 %81 to i64
  %83 = sub i64 %80, %82
  %84 = load ptr, ptr %8, align 8, !tbaa !14
  %85 = invoke i64 @fwrite(ptr noundef %79, i64 noundef 1, i64 noundef %83, ptr noundef %84)
          to label %86 unwind label %91

86:                                               ; preds = %71
  call void @llvm.lifetime.end.p0(i64 4, ptr %17) #20
  call void @llvm.lifetime.end.p0(i64 8, ptr %16) #20
  call void @llvm.lifetime.end.p0(i64 4, ptr %15) #20
  call void @_ZN4ncnn3MatD2Ev(ptr noundef nonnull align 8 dereferenceable(72) %12) #20
  call void @llvm.lifetime.end.p0(i64 72, ptr %12) #20
  call void @llvm.lifetime.end.p0(i64 4, ptr %11) #20
  ret i32 0

87:                                               ; preds = %68
  %88 = landingpad { ptr, i32 }
          cleanup
  %89 = extractvalue { ptr, i32 } %88, 0
  store ptr %89, ptr %13, align 8
  %90 = extractvalue { ptr, i32 } %88, 1
  store i32 %90, ptr %14, align 4
  br label %95

91:                                               ; preds = %71
  %92 = landingpad { ptr, i32 }
          cleanup
  %93 = extractvalue { ptr, i32 } %92, 0
  store ptr %93, ptr %13, align 8
  %94 = extractvalue { ptr, i32 } %92, 1
  store i32 %94, ptr %14, align 4
  call void @llvm.lifetime.end.p0(i64 4, ptr %17) #20
  call void @llvm.lifetime.end.p0(i64 8, ptr %16) #20
  br label %95

95:                                               ; preds = %91, %87
  call void @llvm.lifetime.end.p0(i64 4, ptr %15) #20
  br label %96

96:                                               ; preds = %95, %45
  call void @_ZN4ncnn3MatD2Ev(ptr noundef nonnull align 8 dereferenceable(72) %12) #20
  call void @llvm.lifetime.end.p0(i64 72, ptr %12) #20
  call void @llvm.lifetime.end.p0(i64 4, ptr %11) #20
  br label %97

97:                                               ; preds = %96
  %98 = load ptr, ptr %13, align 8
  %99 = load i32, ptr %14, align 4
  %100 = insertvalue { ptr, i32 } poison, ptr %98, 0
  %101 = insertvalue { ptr, i32 } %100, i32 %99, 1
  resume { ptr, i32 } %101
}