; Function Attrs: mustprogress uwtable
define dso_local noundef i32 @_ZN11ModelWriter18fwrite_weight_dataERKN4ncnn3MatEP8_IO_FILEff(ptr noundef nonnull readonly align 8 captures(none) dereferenceable(116) %0, ptr noundef nonnull align 8 dereferenceable(72) %1, ptr noundef captures(none) %2, float noundef %3, float noundef %4) local_unnamed_addr #3 align 2 personality ptr @__gxx_personality_v0 {
  %6 = alloca %"class.ncnn::Mat", align 8
  %7 = alloca [4 x i8], align 4
  %8 = tail call i64 @ftell(ptr noundef %2)
  call void @llvm.lifetime.start.p0(i64 72, ptr nonnull %6) #25
  %9 = getelementptr inbounds nuw i8, ptr %1, i64 44
  %10 = load i32, ptr %9, align 4, !tbaa !93
  %11 = getelementptr inbounds nuw i8, ptr %1, i64 48
  %12 = load i32, ptr %11, align 8, !tbaa !94
  %13 = mul nsw i32 %12, %10
  %14 = getelementptr inbounds nuw i8, ptr %1, i64 52
  %15 = load i32, ptr %14, align 4, !tbaa !95
  %16 = mul nsw i32 %13, %15
  %17 = getelementptr inbounds nuw i8, ptr %1, i64 56
  %18 = load i32, ptr %17, align 8, !tbaa !85
  %19 = mul nsw i32 %16, %18
  call void @_ZNK4ncnn3Mat7reshapeEiPNS_9AllocatorE(ptr dead_on_unwind nonnull writable sret(%"class.ncnn::Mat") align 8 %6, ptr noundef nonnull align 8 dereferenceable(72) %1, i32 noundef %19, ptr noundef null)
  %20 = getelementptr inbounds nuw i8, ptr %0, i64 104
  %21 = load i32, ptr %20, align 8, !tbaa !25
  %.not = icmp eq i32 %21, 0
  br i1 %.not, label %43, label %22

22:                                               ; preds = %5
  invoke fastcc void @_ZL9RandomizeRN4ncnn3MatEff(ptr noundef nonnull align 8 dereferenceable(72) %6, float noundef %3, float noundef %4)
          to label %43 unwind label %23

23:                                               ; preds = %22
  %24 = landingpad { ptr, i32 }
          cleanup
  %25 = getelementptr inbounds nuw i8, ptr %6, i64 8
  %26 = load ptr, ptr %25, align 8, !tbaa !74
  %.not.i18 = icmp eq ptr %26, null
  br i1 %.not.i18, label %_ZN4ncnn3MatD2Ev.exit, label %27

27:                                               ; preds = %23
  %28 = atomicrmw add ptr %26, i32 -1 acq_rel, align 4
  %29 = icmp eq i32 %28, 1
  br i1 %29, label %30, label %_ZN4ncnn3MatD2Ev.exit

30:                                               ; preds = %27
  %31 = getelementptr inbounds nuw i8, ptr %6, i64 32
  %32 = load ptr, ptr %31, align 8, !tbaa !75
  %.not3.i19 = icmp eq ptr %32, null
  %33 = load ptr, ptr %6, align 8, !tbaa !76
  br i1 %.not3.i19, label %38, label %34

34:                                               ; preds = %30
  %35 = load ptr, ptr %32, align 8, !tbaa !20
  %36 = getelementptr inbounds nuw i8, ptr %35, i64 24
  %37 = load ptr, ptr %36, align 8
  invoke void %37(ptr noundef nonnull align 8 dereferenceable(8) %32, ptr noundef %33)
          to label %_ZN4ncnn3MatD2Ev.exit unwind label %40

38:                                               ; preds = %30
  %.not.i22 = icmp eq ptr %33, null
  br i1 %.not.i22, label %_ZN4ncnn3MatD2Ev.exit, label %39

39:                                               ; preds = %38
  call void @free(ptr noundef nonnull %33) #25
  br label %_ZN4ncnn3MatD2Ev.exit

40:                                               ; preds = %34
  %41 = landingpad { ptr, i32 }
          catch ptr null
  %42 = extractvalue { ptr, i32 } %41, 0
  call void @__clang_call_terminate(ptr %42) #30
  unreachable

_ZN4ncnn3MatD2Ev.exit:                            ; preds = %27, %23, %34, %38, %39
  call void @llvm.lifetime.end.p0(i64 72, ptr nonnull %6) #25
  resume { ptr, i32 } %24

43:                                               ; preds = %22, %5
  %44 = getelementptr inbounds nuw i8, ptr %6, i64 16
  %45 = load i64, ptr %44, align 8, !tbaa !90
  %46 = icmp eq i64 %45, 4
  %.pre = load ptr, ptr %6, align 8, !tbaa !76
  %47 = getelementptr inbounds nuw i8, ptr %6, i64 44
  %48 = load i32, ptr %47, align 4, !tbaa !93
  br i1 %46, label %49, label %_ZL27replace_denormals_with_zeroPfm.exit

49:                                               ; preds = %43
  %50 = sext i32 %48 to i64
  %.not.i25 = icmp eq i32 %48, 0
  br i1 %.not.i25, label %_ZL27replace_denormals_with_zeroPfm.exit, label %.lr.ph.i

.lr.ph.i:                                         ; preds = %49, %58
  %.09.i = phi i64 [ %59, %58 ], [ 0, %49 ]
  %51 = getelementptr inbounds nuw float, ptr %.pre, i64 %.09.i
  %52 = load float, ptr %51, align 4, !tbaa !86
  %53 = call float @llvm.fabs.f32(float %52)
  %54 = fpext float %53 to double
  %55 = fcmp olt double %54, 1.000000e-30
  %56 = fcmp une float %52, 0.000000e+00
  %or.cond.i = select i1 %55, i1 %56, i1 false
  br i1 %or.cond.i, label %57, label %58

57:                                               ; preds = %.lr.ph.i
  store float 0.000000e+00, ptr %51, align 4, !tbaa !86
  br label %58

58:                                               ; preds = %57, %.lr.ph.i
  %59 = add nuw i64 %.09.i, 1
  %exitcond.not.i = icmp eq i64 %59, %50
  br i1 %exitcond.not.i, label %_ZL27replace_denormals_with_zeroPfm.exit, label %.lr.ph.i, !llvm.loop !143

_ZL27replace_denormals_with_zeroPfm.exit:         ; preds = %58, %43, %49
  %60 = phi i32 [ 0, %49 ], [ %48, %43 ], [ %48, %58 ]
  %61 = sext i32 %60 to i64
  %62 = call i64 @fwrite(ptr noundef %.pre, i64 noundef %45, i64 noundef %61, ptr noundef %2)
  %63 = call i64 @ftell(ptr noundef %2)
  %64 = sub i64 %63, %8
  %sext = shl i64 %64, 32
  %65 = ashr exact i64 %sext, 32
  %66 = add nsw i64 %65, 3
  %67 = and i64 %66, -4
  call void @llvm.lifetime.start.p0(i64 4, ptr nonnull %7) #25
  store i32 0, ptr %7, align 4
  %68 = sub nsw i64 %67, %65
  %69 = call i64 @fwrite(ptr noundef nonnull %7, i64 noundef 1, i64 noundef %68, ptr noundef %2)
  call void @llvm.lifetime.end.p0(i64 4, ptr nonnull %7) #25
  %70 = getelementptr inbounds nuw i8, ptr %6, i64 8
  %71 = load ptr, ptr %70, align 8, !tbaa !74
  %.not.i = icmp eq ptr %71, null
  br i1 %.not.i, label %_ZN4ncnn3MatD2Ev.exit17, label %72

72:                                               ; preds = %_ZL27replace_denormals_with_zeroPfm.exit
  %73 = atomicrmw add ptr %71, i32 -1 acq_rel, align 4
  %74 = icmp eq i32 %73, 1
  br i1 %74, label %75, label %_ZN4ncnn3MatD2Ev.exit17

75:                                               ; preds = %72
  %76 = getelementptr inbounds nuw i8, ptr %6, i64 32
  %77 = load ptr, ptr %76, align 8, !tbaa !75
  %.not3.i = icmp eq ptr %77, null
  %78 = load ptr, ptr %6, align 8, !tbaa !76
  br i1 %.not3.i, label %83, label %79

79:                                               ; preds = %75
  %80 = load ptr, ptr %77, align 8, !tbaa !20
  %81 = getelementptr inbounds nuw i8, ptr %80, i64 24
  %82 = load ptr, ptr %81, align 8
  invoke void %82(ptr noundef nonnull align 8 dereferenceable(8) %77, ptr noundef %78)
          to label %_ZN4ncnn3MatD2Ev.exit17 unwind label %85

83:                                               ; preds = %75
  %.not.i23 = icmp eq ptr %78, null
  br i1 %.not.i23, label %_ZN4ncnn3MatD2Ev.exit17, label %84

84:                                               ; preds = %83
  call void @free(ptr noundef nonnull %78) #25
  br label %_ZN4ncnn3MatD2Ev.exit17

85:                                               ; preds = %79
  %86 = landingpad { ptr, i32 }
          catch ptr null
  %87 = extractvalue { ptr, i32 } %86, 0
  call void @__clang_call_terminate(ptr %87) #30
  unreachable

_ZN4ncnn3MatD2Ev.exit17:                          ; preds = %72, %_ZL27replace_denormals_with_zeroPfm.exit, %79, %83, %84
  call void @llvm.lifetime.end.p0(i64 72, ptr nonnull %6) #25
  ret i32 0
}